target datalayout = "e-m:e-p270:32:32-p271:32:32-p272:64:64-i64:64-i128:128-f80:128-n8:16:32:64-S128"
target triple = "x86_64-pc-linux-gnu"

%struct.H5O_linfo_t = type { i8, i8, i64, i64, i64, i64, i64 }

@H5O_init_g = external global i8, align 1
@H5_libterm_g = external global i8, align 1

; Function Attrs: nounwind uwtable
define internal i32 @H5O__linfo_encode(ptr noundef %0, i1 noundef zeroext %1, i64 noundef %2, ptr noundef %3, ptr noundef %4) #0 {
  %6 = alloca ptr, align 8
  %7 = alloca i8, align 1
  %8 = alloca i64, align 8
  %9 = alloca ptr, align 8
  %10 = alloca ptr, align 8
  %11 = alloca ptr, align 8
  %12 = alloca i8, align 1
  %13 = alloca i64, align 8
  %14 = alloca i64, align 8
  %15 = alloca ptr, align 8
  store ptr %0, ptr %6, align 8, !tbaa !3
  %16 = zext i1 %1 to i8
  store i8 %16, ptr %7, align 1, !tbaa !22
  store i64 %2, ptr %8, align 8, !tbaa !14
  store ptr %3, ptr %9, align 8, !tbaa !16
  store ptr %4, ptr %10, align 8, !tbaa !21
  call void @llvm.lifetime.start.p0(i64 8, ptr %11) #6
  %17 = load ptr, ptr %10, align 8, !tbaa !21
  store ptr %17, ptr %11, align 8, !tbaa !18
  call void @llvm.lifetime.start.p0(i64 1, ptr %12) #6
  %18 = load i8, ptr @H5O_init_g, align 1, !tbaa !22, !range !24, !noundef !25
  %19 = trunc i8 %18 to i1
  br i1 %19, label %24, label %20

20:                                               ; preds = %5
  %21 = load i8, ptr @H5_libterm_g, align 1, !tbaa !22, !range !24, !noundef !25
  %22 = trunc i8 %21 to i1
  %23 = xor i1 %22, true
  br label %24

24:                                               ; preds = %20, %5
  %25 = phi i1 [ true, %5 ], [ %23, %20 ]
  %26 = xor i1 %25, true
  %27 = xor i1 %26, true
  %28 = zext i1 %27 to i32
  %29 = sext i32 %28 to i64
  %30 = call i64 @llvm.expect.i64(i64 %29, i64 1)
  %31 = icmp ne i64 %30, 0
  br i1 %31, label %32, label %118

32:                                               ; preds = %24
  %33 = load ptr, ptr %9, align 8, !tbaa !16
  %34 = getelementptr inbounds nuw i8, ptr %33, i32 1
  store ptr %34, ptr %9, align 8, !tbaa !16
  store i8 0, ptr %33, align 1, !tbaa !20
  %35 = load ptr, ptr %11, align 8, !tbaa !18
  %36 = getelementptr inbounds nuw %struct.H5O_linfo_t, ptr %35, i32 0, i32 0
  %37 = load i8, ptr %36, align 8, !tbaa !26, !range !24, !noundef !25
  %38 = trunc i8 %37 to i1
  %39 = select i1 %38, i32 1, i32 0
  %40 = trunc i32 %39 to i8
  store i8 %40, ptr %12, align 1, !tbaa !20
  %41 = load i8, ptr %12, align 1, !tbaa !20
  %42 = zext i8 %41 to i32
  %43 = load ptr, ptr %11, align 8, !tbaa !18
  %44 = getelementptr inbounds nuw %struct.H5O_linfo_t, ptr %43, i32 0, i32 1
  %45 = load i8, ptr %44, align 1, !tbaa !28, !range !24, !noundef !25
  %46 = trunc i8 %45 to i1
  %47 = select i1 %46, i32 2, i32 0
  %48 = or i32 %42, %47
  %49 = trunc i32 %48 to i8
  store i8 %49, ptr %12, align 1, !tbaa !20
  %50 = load i8, ptr %12, align 1, !tbaa !20
  %51 = load ptr, ptr %9, align 8, !tbaa !16
  %52 = getelementptr inbounds nuw i8, ptr %51, i32 1
  store ptr %52, ptr %9, align 8, !tbaa !16
  store i8 %50, ptr %51, align 1, !tbaa !20
  %53 = load ptr, ptr %11, align 8, !tbaa !18
  %54 = getelementptr inbounds nuw %struct.H5O_linfo_t, ptr %53, i32 0, i32 0
  %55 = load i8, ptr %54, align 8, !tbaa !26, !range !24, !noundef !25
  %56 = trunc i8 %55 to i1
  br i1 %56, label %57, label %98

57:                                               ; preds = %32
  br label %58

58:                                               ; preds = %57
  call void @llvm.lifetime.start.p0(i64 8, ptr %13) #6
  %59 = load ptr, ptr %11, align 8, !tbaa !18
  %60 = getelementptr inbounds nuw %struct.H5O_linfo_t, ptr %59, i32 0, i32 2
  %61 = load i64, ptr %60, align 8, !tbaa !30
  store i64 %61, ptr %13, align 8, !tbaa !14
  call void @llvm.lifetime.start.p0(i64 8, ptr %14) #6
  call void @llvm.lifetime.start.p0(i64 8, ptr %15) #6
  %62 = load ptr, ptr %9, align 8, !tbaa !16
  store ptr %62, ptr %15, align 8, !tbaa !16
  store i64 0, ptr %14, align 8, !tbaa !14
  br label %63

63:                                               ; preds = %72, %58
  %64 = load i64, ptr %14, align 8, !tbaa !14
  %65 = icmp ult i64 %64, 8
  br i1 %65, label %66, label %77

66:                                               ; preds = %63
  %67 = load i64, ptr %13, align 8, !tbaa !14
  %68 = and i64 %67, 255
  %69 = trunc i64 %68 to i8
  %70 = load ptr, ptr %15, align 8, !tbaa !16
  %71 = getelementptr inbounds nuw i8, ptr %70, i32 1
  store ptr %71, ptr %15, align 8, !tbaa !16
  store i8 %69, ptr %70, align 1, !tbaa !20
  br label %72

72:                                               ; preds = %66
  %73 = load i64, ptr %14, align 8, !tbaa !14
  %74 = add i64 %73, 1
  store i64 %74, ptr %14, align 8, !tbaa !14
  %75 = load i64, ptr %13, align 8, !tbaa !14
  %76 = ashr i64 %75, 8
  store i64 %76, ptr %13, align 8, !tbaa !14
  br label %63, !llvm.loop !34

77:                                               ; preds = %63
  br label %78

78:                                               ; preds = %90, %77
  %79 = load i64, ptr %14, align 8, !tbaa !14
  %80 = icmp ult i64 %79, 8
  br i1 %80, label %81, label %93

81:                                               ; preds = %78
  %82 = load ptr, ptr %11, align 8, !tbaa !18
  %83 = getelementptr inbounds nuw %struct.H5O_linfo_t, ptr %82, i32 0, i32 2
  %84 = load i64, ptr %83, align 8, !tbaa !30
  %85 = icmp slt i64 %84, 0
  %86 = select i1 %85, i32 255, i32 0
  %87 = trunc i32 %86 to i8
  %88 = load ptr, ptr %15, align 8, !tbaa !16
  %89 = getelementptr inbounds nuw i8, ptr %88, i32 1
  store ptr %89, ptr %15, align 8, !tbaa !16
  store i8 %87, ptr %88, align 1, !tbaa !20
  br label %90

90:                                               ; preds = %81
  %91 = load i64, ptr %14, align 8, !tbaa !14
  %92 = add i64 %91, 1
  store i64 %92, ptr %14, align 8, !tbaa !14
  br label %78, !llvm.loop !35

93:                                               ; preds = %78
  %94 = load ptr, ptr %9, align 8, !tbaa !16
  %95 = getelementptr inbounds i8, ptr %94, i64 8
  store ptr %95, ptr %9, align 8, !tbaa !16
  call void @llvm.lifetime.end.p0(i64 8, ptr %15) #6
  call void @llvm.lifetime.end.p0(i64 8, ptr %14) #6
  call void @llvm.lifetime.end.p0(i64 8, ptr %13) #6
  br label %96

96:                                               ; preds = %93
  br label %97

97:                                               ; preds = %96
  br label %98

98:                                               ; preds = %97, %32
  %99 = load ptr, ptr %6, align 8, !tbaa !3
  %100 = load ptr, ptr %11, align 8, !tbaa !18
  %101 = getelementptr inbounds nuw %struct.H5O_linfo_t, ptr %100, i32 0, i32 5
  %102 = load i64, ptr %101, align 8, !tbaa !36
  call void @H5F_addr_encode(ptr noundef %99, ptr noundef %9, i64 noundef %102)
  %103 = load ptr, ptr %6, align 8, !tbaa !3
  %104 = load ptr, ptr %11, align 8, !tbaa !18
  %105 = getelementptr inbounds nuw %struct.H5O_linfo_t, ptr %104, i32 0, i32 6
  %106 = load i64, ptr %105, align 8, !tbaa !37
  call void @H5F_addr_encode(ptr noundef %103, ptr noundef %9, i64 noundef %106)
  %107 = load ptr, ptr %11, align 8, !tbaa !18
  %108 = getelementptr inbounds nuw %struct.H5O_linfo_t, ptr %107, i32 0, i32 1
  %109 = load i8, ptr %108, align 1, !tbaa !28, !range !24, !noundef !25
  %110 = trunc i8 %109 to i1
  br i1 %110, label %111, label %116

111:                                              ; preds = %98
  %112 = load ptr, ptr %6, align 8, !tbaa !3
  %113 = load ptr, ptr %11, align 8, !tbaa !18
  %114 = getelementptr inbounds nuw %struct.H5O_linfo_t, ptr %113, i32 0, i32 3
  %115 = load i64, ptr %114, align 8, !tbaa !33
  call void @H5F_addr_encode(ptr noundef %112, ptr noundef %9, i64 noundef %115)
  br label %117

116:                                              ; preds = %98
  br label %117

117:                                              ; preds = %116, %111
  br label %118

118:                                              ; preds = %117, %24
  call void @llvm.lifetime.end.p0(i64 1, ptr %12) #6
  call void @llvm.lifetime.end.p0(i64 8, ptr %11) #6
  ret i32 0
}