; Function Attrs: nounwind uwtable
define internal noundef i32 @H5O__linfo_encode(ptr noundef %0, i1 zeroext %1, i64 %2, ptr noundef %3, ptr noundef readonly captures(none) %4) #0 {
  %6 = alloca ptr, align 8
  %7 = load i8, ptr @H5O_init_g, align 1, !tbaa !3, !range !7, !noundef !8
  %8 = trunc nuw i8 %7 to i1
  %9 = load i8, ptr @H5_libterm_g, align 1, !range !7
  %10 = trunc nuw i8 %9 to i1
  %11 = xor i1 %10, true
  %12 = select i1 %8, i1 true, i1 %11
  br i1 %12, label %13, label %44, !prof !9

13:                                               ; preds = %5
  %14 = getelementptr inbounds nuw i8, ptr %3, i64 1
  store i8 0, ptr %3, align 1, !tbaa !12
  %15 = load i8, ptr %4, align 8, !tbaa !16, !range !7, !noundef !8
  %16 = getelementptr inbounds nuw i8, ptr %4, i64 1
  %17 = load i8, ptr %16, align 1, !tbaa !18, !range !7, !noundef !8
  %18 = trunc nuw i8 %17 to i1
  %19 = select i1 %18, i8 2, i8 0
  %20 = or disjoint i8 %19, %15
  %21 = getelementptr inbounds nuw i8, ptr %3, i64 2
  store ptr %21, ptr %6, align 8, !tbaa !13
  store i8 %20, ptr %14, align 1, !tbaa !12
  %22 = load i8, ptr %4, align 8, !tbaa !16, !range !7, !noundef !8
  %23 = trunc nuw i8 %22 to i1
  br i1 %23, label %24, label %34

24:                                               ; preds = %13
  %25 = getelementptr inbounds nuw i8, ptr %4, i64 8
  %26 = load i64, ptr %25, align 8, !tbaa !22
  br label %27

27:                                               ; preds = %24, %27
  %.027 = phi ptr [ %21, %24 ], [ %29, %27 ]
  %.02226 = phi i64 [ 0, %24 ], [ %30, %27 ]
  %.02425 = phi i64 [ %26, %24 ], [ %31, %27 ]
  %28 = trunc i64 %.02425 to i8
  %29 = getelementptr inbounds nuw i8, ptr %.027, i64 1
  store i8 %28, ptr %.027, align 1, !tbaa !12
  %30 = add nuw nsw i64 %.02226, 1
  %31 = ashr i64 %.02425, 8
  %exitcond.not = icmp eq i64 %30, 8
  br i1 %exitcond.not, label %32, label %27, !llvm.loop !24

32:                                               ; preds = %27
  %33 = getelementptr inbounds nuw i8, ptr %3, i64 10
  store ptr %33, ptr %6, align 8, !tbaa !13
  br label %34

34:                                               ; preds = %32, %13
  %35 = getelementptr inbounds nuw i8, ptr %4, i64 32
  %36 = load i64, ptr %35, align 8, !tbaa !25
  call void @H5F_addr_encode(ptr noundef %0, ptr noundef nonnull %6, i64 noundef %36) #7
  %37 = getelementptr inbounds nuw i8, ptr %4, i64 40
  %38 = load i64, ptr %37, align 8, !tbaa !26
  call void @H5F_addr_encode(ptr noundef %0, ptr noundef nonnull %6, i64 noundef %38) #7
  %39 = load i8, ptr %16, align 1, !tbaa !18, !range !7, !noundef !8
  %40 = trunc nuw i8 %39 to i1
  br i1 %40, label %41, label %44

41:                                               ; preds = %34
  %42 = getelementptr inbounds nuw i8, ptr %4, i64 16
  %43 = load i64, ptr %42, align 8, !tbaa !23
  call void @H5F_addr_encode(ptr noundef %0, ptr noundef nonnull %6, i64 noundef %43) #7
  br label %44

44:                                               ; preds = %41, %34, %5
  ret i32 0
}